target datalayout = "e-m:e-p270:32:32-p271:32:32-p272:64:64-i64:64-i128:128-f80:128-n8:16:32:64-S128"
target triple = "x86_64-pc-linux-gnu"

%struct._zval_struct = type { %union._zend_value, %union.anon, %union.anon.2 }
%union._zend_value = type { i64 }
%union.anon = type { i32 }
%union.anon.2 = type { i32 }
%struct._zend_refcounted_h = type { i32, %union.anon.3 }
%union.anon.3 = type { i32 }
%struct._zend_string = type { %struct._zend_refcounted_h, i64, i64, [1 x i8] }

@.str.2 = private unnamed_addr constant [6 x i8] c"class\00", align 1

; Function Attrs: nounwind uwtable
define internal ptr @dom_element_reflected_attribute_write(ptr noundef %0, ptr noundef %1, ptr noundef %2) #0 {
  %4 = alloca ptr, align 8
  %5 = alloca ptr, align 8
  %6 = alloca ptr, align 8
  %7 = alloca ptr, align 8
  %8 = alloca ptr, align 8
  store ptr %0, ptr %5, align 8
  store ptr %1, ptr %6, align 8
  store ptr %2, ptr %7, align 8
  %9 = load ptr, ptr %5, align 8
  %10 = call ptr @dom_object_get_node(ptr noundef %9)
  store ptr %10, ptr %8, align 8
  %11 = load ptr, ptr %8, align 8
  %12 = icmp eq ptr %11, null
  br i1 %12, label %13, label %14

13:                                               ; preds = %3
  call void @php_dom_throw_error(i32 noundef 11, i32 noundef 1)
  store ptr null, ptr %4, align 8
  br label %23

14:                                               ; preds = %3
  %15 = load ptr, ptr %8, align 8
  %16 = load ptr, ptr %7, align 8
  %17 = load ptr, ptr %6, align 8
  %18 = getelementptr inbounds %struct._zval_struct, ptr %17, i32 0, i32 0
  %19 = load ptr, ptr %18, align 8
  %20 = getelementptr inbounds %struct._zend_string, ptr %19, i32 0, i32 3
  %21 = getelementptr inbounds [1 x i8], ptr %20, i64 0, i64 0
  %22 = call ptr @xmlSetNsProp(ptr noundef %15, ptr noundef null, ptr noundef %16, ptr noundef %21)
  store ptr %22, ptr %4, align 8
  br label %23

23:                                               ; preds = %14, %13
  %24 = load ptr, ptr %4, align 8
  ret ptr %24
}

; Function Attrs: nounwind uwtable
define hidden i32 @dom_element_class_name_write(ptr noundef %0, ptr noundef %1) #0 {
  %3 = alloca i32, align 4
  %4 = alloca ptr, align 8
  %5 = alloca ptr, align 8
  store ptr %0, ptr %4, align 8
  store ptr %1, ptr %5, align 8
  %6 = load ptr, ptr %4, align 8
  %7 = load ptr, ptr %5, align 8
  %8 = call ptr @dom_element_reflected_attribute_write(ptr noundef %6, ptr noundef %7, ptr noundef @.str.2)
  %9 = icmp ne ptr %8, null
  br i1 %9, label %10, label %11

10:                                               ; preds = %2
  store i32 0, ptr %3, align 4
  br label %12

11:                                               ; preds = %2
  store i32 -1, ptr %3, align 4
  br label %12

12:                                               ; preds = %11, %10
  %13 = load i32, ptr %3, align 4
  ret i32 %13
}