; Function Attrs: nounwind uwtable
define hidden i32 @dom_element_class_name_write(ptr noundef %0, ptr nocapture noundef readonly %1) local_unnamed_addr #0 {
  %3 = tail call ptr @dom_object_get_node(ptr noundef %0) #8
  %4 = icmp eq ptr %3, null
  br i1 %4, label %5, label %6

5:                                                ; preds = %2
  tail call void @php_dom_throw_error(i32 noundef 11, i32 noundef 1) #8
  br label %dom_element_reflected_attribute_write.exit

6:                                                ; preds = %2
  %7 = load ptr, ptr %1, align 8
  %8 = getelementptr inbounds i8, ptr %7, i64 24
  %9 = tail call ptr @xmlSetNsProp(ptr noundef nonnull %3, ptr noundef null, ptr noundef nonnull @.str.2, ptr noundef nonnull %8) #8
  %10 = icmp eq ptr %9, null
  %11 = sext i1 %10 to i32
  br label %dom_element_reflected_attribute_write.exit

dom_element_reflected_attribute_write.exit:       ; preds = %5, %6
  %.0.i = phi i32 [ -1, %5 ], [ %11, %6 ]
  ret i32 %.0.i
}